(dp0
I128
(lp1
(S'1 1 2 2 3 3 4 4 5 5 6 6 7 7 8 8 9 9 10 10 11 11 12 12 13 13 14 14 15 15 16 16 17 17 18 18 19 19 20 20 21 21 22 22 23 23 24 24 25 25 26 26 27 27 28 28 29 29 30 30 31 31 32 32 33 33 34 34 35 35 36 36 37 37 38 38 39 39 40 40 41 41 42 42 43 43 44 44 45 45 46 46 47 47 48 48 49 49 50 50 51 51 52 52 53 53 54 54 55 55 56 56 57 57 58 58 59 59 60 60 61 61 62 62 63 63 64 64'
p2
I2
tp3
asI64
(lp4
(S'1 1 2 2 3 3 4 4 5 5 6 6 7 7 8 8 9 9 10 10 11 11 12 12 13 13 14 14 15 15 16 16 17 17 18 18 19 19 20 20 21 21 22 22 23 23 24 24 25 25 26 26 27 27 28 28 29 29 30 30 31 31 32 32'
p5
I1
tp6
asI2
(lp7
(S'1 1'
p8
I366
tp9
asI3
(lp10
(S'1 1 2'
p11
I20
tp12
a(S'1 1 1'
p13
I414
tp14
a(S'1 2 1'
p15
I283
tp16
asI4
(lp17
(S'1 2 3 2'
p18
I603
tp19
a(S'1 2 3 1'
p20
I58
tp21
a(S'1 2 1 2'
p22
I1597
tp23
a(S'1 2 2 1'
p24
I152
tp25
a(S'1 1 1 2'
p26
I41
tp27
a(S'1 1 1 1'
p28
I4
tp29
a(S'1 1 2 1'
p30
I26
tp31
a(S'1 1 2 2'
p32
I856
tp33
asI5
(lp34
(S'1 1 2 2 1'
p35
I53
tp36
a(S'1 1 1 2 2'
p37
I14
tp38
a(S'1 1 2 2 3'
p39
I6
tp40
a(S'1 1 2 2 2'
p41
I28
tp42
a(S'1 2 1 2 1'
p43
I10
tp44
a(S'1 2 3 3 3'
p45
I1
tp46
a(S'1 1 2 1 2'
p47
I28
tp48
a(S'1 2 3 2 2'
p49
I33
tp50
a(S'1 2 1 2 3'
p51
I4
tp52
a(S'1 2 1 2 2'
p53
I80
tp54
a(S'1 1 2 3 3'
p55
I3
tp56
a(S'1 2 3 3 2'
p57
I192
tp58
a(S'1 2 1 1 2'
p59
I72
tp60
a(S'1 1 1 1 1'
p61
I5
tp62
a(S'1 2 3 1 2'
p63
I3
tp64
a(S'1 2 2 1 2'
p65
I6
tp66
a(S'1 2 1 3 3'
p67
I1
tp68
a(S'1 1 2 3 2'
p69
I1
tp70
a(S'1 2 2 2 1'
p71
I2
tp72
asI6
(lp73
(S'1 1 2 2 2 1'
p74
I5
tp75
a(S'1 2 2 1 3 3'
p76
I30
tp77
a(S'1 2 3 3 2 1'
p78
I2
tp79
a(S'1 2 3 3 3 2'
p80
I224
tp81
a(S'1 2 3 3 1 2'
p82
I14
tp83
a(S'1 2 1 2 2 2'
p84
I1
tp85
a(S'1 2 3 2 3 1'
p86
I3
tp87
a(S'1 2 1 3 3 2'
p88
I1
tp89
a(S'1 2 3 2 4 4'
p90
I1
tp91
a(S'1 1 2 1 1 2'
p92
I7
tp93
a(S'1 2 3 2 4 3'
p94
I3
tp95
a(S'1 2 3 2 4 2'
p96
I54
tp97
a(S'1 1 2 1 2 2'
p98
I1
tp99
a(S'1 2 1 1 1 2'
p100
I3
tp101
a(S'1 2 2 1 1 2'
p102
I1
tp103
a(S'1 1 2 2 3 3'
p104
I533
tp105
a(S'1 2 1 3 2 3'
p106
I3
tp107
a(S'1 2 3 2 1 3'
p108
I4
tp109
a(S'1 2 2 3 3 1'
p110
I3
tp111
a(S'1 2 3 2 3 2'
p112
I1
tp113
a(S'1 1 2 3 2 1'
p114
I5
tp115
a(S'1 1 2 3 2 3'
p116
I11
tp117
a(S'1 1 1 2 2 2'
p118
I5
tp119
a(S'1 2 2 2 1 3'
p120
I4
tp121
a(S'1 1 2 3 3 2'
p122
I499
tp123
a(S'1 2 1 2 3 2'
p124
I5
tp125
a(S'1 2 1 2 3 3'
p126
I463
tp127
a(S'1 2 3 1 2 3'
p128
I7
tp129
a(S'1 2 1 2 1 2'
p130
I31
tp131
a(S'1 2 3 1 3 2'
p132
I4
tp133
a(S'1 2 1 1 2 2'
p134
I6
tp135
a(S'1 2 2 3 1 3'
p136
I1
tp137
asI7
(lp138
(S'1 2 3 3 3 3 2'
p139
I2
tp140
a(S'1 1 2 2 2 3 3'
p141
I7
tp142
a(S'1 2 3 4 4 4 3'
p143
I1
tp144
a(S'1 1 2 2 3 2 3'
p145
I1
tp146
a(S'1 1 2 2 3 3 4'
p147
I1
tp148
a(S'1 2 1 3 3 4 4'
p149
I1
tp150
a(S'1 1 1 1 1 2 2'
p151
I1
tp152
a(S'1 1 2 2 3 3 3'
p153
I17
tp154
a(S'1 2 1 2 2 3 2'
p155
I1
tp156
a(S'1 2 1 2 2 3 3'
p157
I545
tp158
a(S'1 1 1 2 2 3 3'
p159
I6
tp160
a(S'1 1 2 3 3 3 2'
p161
I5
tp162
a(S'1 1 2 3 2 3 2'
p163
I1
tp164
a(S'1 1 2 3 3 2 1'
p165
I1
tp166
a(S'1 1 2 3 3 2 3'
p167
I4
tp168
a(S'1 1 2 3 3 2 2'
p169
I1
tp170
a(S'1 2 1 2 1 3 3'
p171
I4
tp172
a(S'1 2 1 1 2 3 3'
p173
I1
tp174
a(S'1 2 2 3 4 4 3'
p175
I1
tp176
a(S'1 2 2 3 1 3 1'
p177
I1
tp178
a(S'1 2 3 2 4 4 2'
p179
I1
tp180
a(S'1 2 1 2 3 2 3'
p181
I2
tp182
a(S'1 2 1 2 3 3 3'
p183
I20
tp184
a(S'1 2 1 2 3 3 2'
p185
I7
tp186
asI8
(lp187
(S'1 1 1 2 3 3 2 2'
p188
I1
tp189
a(S'1 2 3 2 4 4 5 5'
p190
I22
tp191
a(S'1 2 2 1 1 3 3 1'
p192
I3
tp193
a(S'1 2 1 2 2 1 2 1'
p194
I3
tp195
a(S'1 2 2 3 4 3 4 1'
p196
I1
tp197
a(S'1 1 1 2 3 3 3 2'
p198
I62
tp199
a(S'1 2 3 2 4 5 6 5'
p200
I85
tp201
a(S'1 2 1 2 2 3 3 2'
p202
I1
tp203
a(S'1 2 1 3 2 4 2 3'
p204
I6
tp205
a(S'1 2 2 3 4 5 5 3'
p206
I2
tp207
a(S'1 1 2 3 3 4 2 4'
p208
I1
tp209
a(S'1 2 1 2 1 2 3 3'
p210
I684
tp211
a(S'1 2 1 2 1 1 3 3'
p212
I1
tp213
a(S'1 1 1 2 2 2 3 3'
p214
I1
tp215
a(S'1 1 1 2 2 3 3 3'
p216
I1
tp217
a(S'1 2 3 1 4 2 3 4'
p218
I1
tp219
a(S'1 1 2 2 3 4 3 4'
p220
I7
tp221
a(S'1 1 2 3 4 2 3 4'
p222
I2
tp223
a(S'1 2 3 3 1 2 4 4'
p224
I3
tp225
a(S'1 2 2 3 3 4 4 1'
p226
I1
tp227
a(S'1 2 1 2 1 3 3 2'
p228
I9
tp229
a(S'1 2 1 2 1 3 3 3'
p230
I1
tp231
a(S'1 1 2 3 2 4 3 4'
p232
I1
tp233
a(S'1 2 2 1 1 2 2 1'
p234
I3
tp235
a(S'1 2 1 1 2 2 3 3'
p236
I1
tp237
a(S'1 2 1 2 3 3 4 4'
p238
I59
tp239
a(S'1 2 2 1 3 4 3 4'
p240
I22
tp241
a(S'1 1 2 2 2 3 3 3'
p242
I2
tp243
a(S'1 2 1 2 3 4 3 4'
p244
I138
tp245
a(S'1 2 3 4 3 4 1 2'
p246
I1
tp247
a(S'1 1 2 2 3 3 3 3'
p248
I4
tp249
a(S'1 2 1 2 3 3 2 1'
p250
I1
tp251
a(S'1 2 1 2 3 4 4 3'
p252
I4
tp253
a(S'1 2 1 2 3 4 5 4'
p254
I23
tp255
a(S'1 2 1 2 2 3 2 3'
p256
I185
tp257
a(S'1 2 3 2 1 4 1 4'
p258
I1
tp259
a(S'1 1 2 2 3 3 4 4'
p260
I507
tp261
a(S'1 2 2 1 3 3 4 4'
p262
I1
tp263
a(S'1 2 3 1 3 2 2 2'
p264
I1
tp265
a(S'1 2 3 2 3 4 1 3'
p266
I1
tp267
a(S'1 2 1 2 3 2 1 3'
p268
I1
tp269
a(S'1 1 2 1 1 2 1 1'
p270
I1
tp271
a(S'1 2 3 1 2 3 4 4'
p272
I1
tp273
a(S'1 1 2 3 2 3 4 4'
p274
I27
tp275
a(S'1 2 1 2 1 2 1 2'
p276
I5
tp277
a(S'1 1 2 3 3 2 4 4'
p278
I25
tp279
a(S'1 2 3 2 4 5 4 5'
p280
I1
tp281
a(S'1 1 1 1 2 2 2 3'
p282
I4
tp283
a(S'1 2 2 1 3 4 4 3'
p284
I12
tp285
asI9
(lp286
(S'1 2 1 2 2 3 2 3 3'
p287
I1226
tp288
a(S'1 2 1 2 2 3 4 4 3'
p289
I1
tp290
a(S'1 2 1 2 3 4 3 4 5'
p291
I3
tp292
a(S'1 1 2 2 3 4 4 3 3'
p293
I1
tp294
a(S'1 1 2 2 3 3 4 3 4'
p295
I1
tp296
a(S'1 2 1 2 3 3 2 4 4'
p297
I8
tp298
a(S'1 1 2 2 3 3 3 4 4'
p299
I11
tp300
a(S'1 1 1 2 2 3 3 4 4'
p301
I6
tp302
a(S'1 2 3 1 2 4 4 3 4'
p303
I1
tp304
a(S'1 2 2 1 3 4 4 3 3'
p305
I1
tp306
a(S'1 1 2 2 2 3 3 4 4'
p307
I3
tp308
a(S'1 2 2 1 3 4 4 3 5'
p309
I1
tp310
a(S'1 1 2 2 3 3 4 4 4'
p311
I13
tp312
a(S'1 1 2 3 3 2 4 4 2'
p313
I14
tp314
a(S'1 2 1 2 3 3 3 4 4'
p315
I2
tp316
a(S'1 1 2 3 4 5 5 4 3'
p317
I1
tp318
a(S'1 2 3 2 4 4 5 5 5'
p319
I1
tp320
a(S'1 2 1 2 3 4 3 4 4'
p321
I1
tp322
asI10
(lp323
(S'1 2 3 2 4 5 6 5 7 7'
p324
I7
tp325
a(S'1 2 3 3 2 2 1 4 5 1'
p326
I1
tp327
a(S'1 2 2 1 3 3 4 5 4 5'
p328
I1
tp329
a(S'1 2 1 2 3 3 4 4 5 5'
p330
I5
tp331
a(S'1 2 2 1 3 4 3 5 4 5'
p332
I1
tp333
a(S'1 1 2 3 3 2 4 5 5 4'
p334
I1
tp335
a(S'1 2 1 2 2 3 3 4 3 4'
p336
I589
tp337
a(S'1 1 1 2 2 3 3 4 4 4'
p338
I1
tp339
a(S'1 2 1 1 2 3 3 4 3 4'
p340
I1
tp341
a(S'1 1 2 3 2 3 4 4 5 5'
p342
I3
tp343
a(S'1 2 3 1 3 2 4 5 4 5'
p344
I1
tp345
a(S'1 1 2 2 3 4 3 4 5 5'
p346
I17
tp347
a(S'1 1 2 2 3 4 4 3 3 4'
p348
I1
tp349
a(S'1 2 1 1 2 2 3 2 2 3'
p350
I1
tp351
a(S'1 1 2 2 2 3 3 4 4 4'
p352
I1
tp353
a(S'1 1 2 3 2 3 4 5 4 5'
p354
I1
tp355
a(S'1 2 3 2 3 3 4 3 4 4'
p356
I1
tp357
a(S'1 2 2 1 3 4 4 3 5 5'
p358
I2
tp359
a(S'1 1 1 2 2 2 3 3 4 4'
p360
I1
tp361
a(S'1 2 2 1 3 4 4 5 5 3'
p362
I1
tp363
a(S'1 2 1 2 3 2 3 2 4 4'
p364
I4
tp365
a(S'1 2 2 1 3 2 3 2 4 4'
p366
I29
tp367
a(S'1 2 1 1 2 3 4 3 3 4'
p368
I1
tp369
a(S'1 2 3 3 2 1 4 4 5 5'
p370
I5
tp371
a(S'1 1 2 2 3 4 5 4 6 6'
p372
I10
tp373
a(S'1 2 2 1 3 3 4 4 5 5'
p374
I3
tp375
a(S'1 1 1 2 2 3 2 3 4 4'
p376
I1
tp377
a(S'1 2 1 2 3 3 4 5 5 4'
p378
I21
tp379
a(S'1 2 2 3 4 4 4 3 5 5'
p380
I1
tp381
a(S'1 2 1 2 3 2 3 4 3 4'
p382
I1
tp383
a(S'1 1 2 2 3 3 4 4 5 5'
p384
I446
tp385
a(S'1 1 2 3 3 4 5 5 5 3'
p386
I1
tp387
a(S'1 2 1 1 2 1 2 2 3 3'
p388
I1
tp389
a(S'1 2 1 1 2 2 3 4 4 3'
p390
I4
tp391
a(S'1 2 2 1 3 3 4 5 5 6'
p392
I1
tp393
a(S'1 2 1 2 3 4 3 4 5 5'
p394
I16
tp395
a(S'1 1 2 2 3 4 3 4 4 3'
p396
I1
tp397
a(S'1 2 1 2 3 3 4 5 4 5'
p398
I2
tp399
asI11
(lp400
(S'1 1 2 2 3 4 4 5 6 6 5'
p401
I1
tp402
a(S'1 2 3 2 4 5 4 4 5 6 6'
p403
I6
tp404
a(S'1 2 3 2 3 4 2 4 5 5 2'
p405
I1
tp406
a(S'1 2 1 2 3 3 3 4 4 5 5'
p407
I1
tp408
a(S'1 2 2 1 3 4 4 3 3 4 4'
p409
I1
tp410
a(S'1 1 2 2 3 4 5 6 4 6 5'
p411
I1
tp412
a(S'1 1 2 3 2 3 3 4 3 4 4'
p413
I1
tp414
a(S'1 1 2 2 3 3 3 4 4 5 5'
p415
I5
tp416
a(S'1 2 1 2 3 3 4 4 4 5 5'
p417
I1
tp418
a(S'1 2 2 3 3 4 4 5 5 6 6'
p419
I1
tp420
a(S'1 2 1 2 3 3 4 5 5 3 4'
p421
I1
tp422
a(S'1 1 2 3 2 3 3 4 4 5 5'
p423
I1
tp424
a(S'1 1 2 3 3 2 4 4 5 5 5'
p425
I1
tp426
a(S'1 1 2 2 3 3 4 4 5 5 5'
p427
I7
tp428
a(S'1 1 2 2 3 3 4 4 4 5 5'
p429
I3
tp430
a(S'1 1 2 3 3 4 4 5 4 4 5'
p431
I1
tp432
a(S'1 1 1 2 2 3 3 4 4 5 5'
p433
I1
tp434
a(S'1 1 2 2 2 3 3 4 4 5 5'
p435
I4
tp436
asI12
(lp437
(S'1 1 2 3 3 4 4 2 2 2 2 5'
p438
I1
tp439
a(S'1 2 2 1 1 2 3 1 2 2 1 3'
p440
I1
tp441
a(S'1 2 1 2 3 4 3 4 5 6 5 6'
p442
I29
tp443
a(S'1 1 2 2 3 3 4 4 4 5 5 5'
p444
I1
tp445
a(S'1 1 2 3 3 2 4 4 5 6 6 5'
p446
I1
tp447
a(S'1 1 2 1 2 2 3 3 4 3 4 4'
p448
I1
tp449
a(S'1 2 1 2 3 3 4 5 5 4 6 6'
p450
I2
tp451
a(S'1 2 1 2 3 4 3 4 5 5 6 6'
p452
I4
tp453
a(S'1 2 1 2 3 3 4 5 4 5 6 6'
p454
I4
tp455
a(S'1 2 1 1 2 1 2 2 1 2 2 1'
p456
I1
tp457
a(S'1 2 1 2 1 2 3 4 3 4 5 5'
p458
I1
tp459
a(S'1 2 1 2 2 3 2 3 4 5 4 5'
p460
I1
tp461
a(S'1 2 1 3 1 3 4 3 4 5 4 5'
p462
I1
tp463
a(S'1 2 1 2 3 3 4 4 5 6 5 6'
p464
I1
tp465
a(S'1 1 2 3 3 2 4 2 4 5 4 5'
p466
I1
tp467
a(S'1 2 2 1 1 3 3 2 4 4 5 5'
p468
I7
tp469
a(S'1 2 3 1 2 3 4 5 4 5 6 6'
p470
I1
tp471
a(S'1 2 1 2 2 3 2 3 3 4 4 4'
p472
I1
tp473
a(S'1 2 1 2 2 3 3 4 4 5 4 5'
p474
I3
tp475
a(S'1 2 2 1 1 3 4 3 3 4 4 3'
p476
I1
tp477
a(S'1 1 2 2 3 3 4 5 5 4 6 6'
p478
I1
tp479
a(S'1 1 2 3 3 2 4 4 5 5 6 6'
p480
I1
tp481
a(S'1 2 1 1 2 2 3 3 4 3 3 4'
p482
I1
tp483
a(S'1 2 3 2 4 5 6 5 7 8 9 8'
p484
I4
tp485
a(S'1 2 1 2 3 3 4 4 5 5 6 6'
p486
I1
tp487
a(S'1 1 2 3 2 3 4 5 6 4 6 5'
p488
I1
tp489
a(S'1 2 1 2 2 3 3 2 4 4 5 5'
p490
I1
tp491
a(S'1 2 3 1 3 2 2 1 1 3 4 1'
p492
I1
tp493
a(S'1 2 1 2 2 3 2 3 3 4 3 4'
p494
I3
tp495
a(S'1 2 2 3 2 4 4 5 6 5 7 7'
p496
I1
tp497
a(S'1 1 2 2 3 3 4 4 5 5 6 6'
p498
I327
tp499
a(S'1 1 1 2 2 2 3 3 3 4 4 4'
p500
I1
tp501
a(S'1 2 2 1 3 3 4 4 5 6 6 5'
p502
I2
tp503
asI13
(lp504
(S'1 1 2 2 3 3 4 4 5 5 5 6 6'
p505
I1
tp506
a(S'1 1 2 2 1 3 3 4 4 5 5 6 6'
p507
I1
tp508
a(S'1 1 2 2 3 3 3 4 4 5 5 6 6'
p509
I2
tp510
a(S'1 1 2 2 2 3 3 4 4 5 5 6 6'
p511
I1
tp512
a(S'1 1 2 2 3 3 4 4 5 5 6 6 5'
p513
I1
tp514
a(S'1 1 2 2 3 3 4 4 4 5 5 6 6'
p515
I1
tp516
a(S'1 1 2 2 3 3 4 4 5 5 6 6 6'
p517
I5
tp518
a(S'1 2 1 2 3 2 3 4 3 4 5 4 5'
p519
I1
tp520
a(S'1 2 1 2 3 4 3 3 3 4 5 5 4'
p521
I2
tp522
a(S'1 2 1 2 2 3 3 4 3 5 4 5 4'
p523
I1
tp524
a(S'1 1 1 2 2 3 4 4 3 5 6 6 5'
p525
I1
tp526
a(S'1 1 1 2 2 3 3 4 4 5 5 6 6'
p527
I1
tp528
a(S'1 2 2 3 3 4 5 5 6 6 7 7 7'
p529
I1
tp530
a(S'1 2 1 2 3 3 4 4 5 5 6 5 6'
p531
I4
tp532
a(S'1 1 1 2 3 3 2 4 4 5 6 6 5'
p533
I1
tp534
a(S'1 2 2 1 3 4 4 3 5 5 5 6 6'
p535
I1
tp536
a(S'1 1 2 1 1 2 2 3 3 4 3 3 4'
p537
I1
tp538
a(S'1 2 2 1 1 2 2 1 3 4 5 5 4'
p539
I1
tp540
a(S'1 1 2 3 3 2 4 4 5 5 4 6 6'
p541
I1
tp542
asI14
(lp543
(S'1 2 2 1 1 3 3 1 4 5 6 5 5 6'
p544
I1
tp545
a(S'1 2 1 2 2 3 4 3 4 3 4 4 5 5'
p546
I1
tp547
a(S'1 2 2 1 1 2 1 2 3 4 4 3 5 5'
p548
I1
tp549
a(S'1 1 2 2 3 3 3 4 4 5 6 7 7 6'
p550
I1
tp551
a(S'1 2 2 1 1 3 3 1 4 5 4 5 4 5'
p552
I6
tp553
a(S'1 2 2 1 1 2 2 1 3 4 3 4 3 3'
p554
I1
tp555
a(S'1 2 2 1 1 2 2 1 3 4 3 4 3 4'
p556
I11
tp557
a(S'1 2 1 2 1 3 1 3 4 1 4 1 5 5'
p558
I1
tp559
a(S'1 2 2 1 1 3 3 1 4 5 5 4 4 5'
p560
I1
tp561
a(S'1 2 1 2 1 2 1 2 3 4 3 4 5 5'
p562
I3
tp563
a(S'1 2 2 1 1 2 2 1 3 4 3 5 5 4'
p564
I1
tp565
a(S'1 2 2 1 1 2 2 1 3 4 3 5 5 3'
p566
I1
tp567
a(S'1 2 1 2 3 4 3 4 5 6 5 6 6 5'
p568
I1
tp569
a(S'1 2 2 1 1 2 2 1 3 4 4 3 5 5'
p570
I8
tp571
a(S'1 2 2 1 3 4 4 3 5 6 5 6 7 7'
p572
I2
tp573
a(S'1 2 2 1 1 2 2 1 3 4 3 3 4 3'
p574
I3
tp575
a(S'1 2 2 3 3 1 4 1 5 6 6 5 7 7'
p576
I1
tp577
a(S'1 2 1 2 2 1 1 2 2 3 2 3 4 4'
p578
I1
tp579
a(S'1 2 1 2 2 3 2 3 4 5 4 5 6 6'
p580
I1
tp581
a(S'1 2 2 1 1 2 1 2 3 4 3 4 3 4'
p582
I1
tp583
a(S'1 2 2 3 1 4 4 3 5 6 7 5 7 6'
p584
I1
tp585
a(S'1 2 2 1 1 3 3 1 4 5 3 5 4 3'
p586
I1
tp587
a(S'1 2 3 1 1 2 2 1 4 5 6 5 4 6'
p588
I1
tp589
a(S'1 1 2 3 2 3 4 4 5 5 6 7 7 6'
p590
I1
tp591
a(S'1 1 2 3 3 2 4 4 5 5 6 6 7 7'
p592
I1
tp593
a(S'1 2 2 1 1 2 2 1 3 4 4 5 3 5'
p594
I2
tp595
a(S'1 2 2 1 3 4 3 3 4 3 5 6 5 6'
p596
I1
tp597
a(S'1 2 2 1 1 2 1 2 3 4 4 3 4 3'
p598
I1
tp599
a(S'1 2 1 2 3 4 3 4 5 6 5 6 5 6'
p600
I3
tp601
a(S'1 2 1 2 2 3 2 3 3 4 3 4 5 5'
p602
I2
tp603
a(S'1 2 2 1 1 2 2 1 3 4 4 3 4 3'
p604
I2
tp605
a(S'1 1 1 2 2 2 3 3 4 4 5 5 6 6'
p606
I1
tp607
a(S'1 1 2 3 2 3 4 4 5 6 5 6 7 7'
p608
I1
tp609
a(S'1 2 2 1 2 1 2 1 3 4 3 4 3 4'
p610
I1
tp611
a(S'1 2 1 2 1 3 1 3 3 4 3 4 5 5'
p612
I1
tp613
a(S'1 2 2 1 3 1 1 3 4 5 4 5 6 6'
p614
I1
tp615
a(S'1 2 2 1 1 2 2 3 4 5 4 5 4 5'
p616
I1
tp617
a(S'1 2 1 2 3 4 3 4 5 4 5 6 6 6'
p618
I1
tp619
a(S'1 1 2 2 3 3 4 5 5 4 6 6 7 7'
p620
I1
tp621
a(S'1 2 2 1 1 2 2 1 3 4 5 4 5 3'
p622
I2
tp623
a(S'1 2 2 1 1 2 2 1 3 4 5 5 3 4'
p624
I2
tp625
a(S'1 2 2 1 1 2 2 1 3 3 4 4 4 3'
p626
I1
tp627
a(S'1 2 2 1 1 2 2 1 3 4 5 3 4 5'
p628
I18
tp629
a(S'1 2 3 1 4 2 3 5 4 5 6 7 6 7'
p630
I1
tp631
a(S'1 1 2 3 3 2 4 4 5 1 5 1 5 1'
p632
I1
tp633
a(S'1 2 1 2 1 2 1 2 3 3 4 5 5 4'
p634
I2
tp635
a(S'1 2 1 2 2 3 3 4 3 4 4 5 4 5'
p636
I1
tp637
a(S'1 2 2 1 3 4 3 4 5 6 6 5 7 7'
p638
I2
tp639
a(S'1 2 2 1 1 2 2 1 3 3 4 5 4 5'
p640
I58
tp641
a(S'1 1 2 3 3 1 1 2 2 4 4 5 5 2'
p642
I1
tp643
a(S'1 2 2 1 3 4 4 3 5 5 6 7 7 6'
p644
I1
tp645
a(S'1 2 2 1 1 3 3 1 4 5 4 5 6 6'
p646
I1
tp647
a(S'1 2 2 1 3 4 4 3 5 6 6 5 7 7'
p648
I18
tp649
a(S'1 2 2 1 1 3 3 1 4 5 5 4 6 6'
p650
I1
tp651
a(S'1 2 2 1 3 4 4 3 5 6 7 5 6 7'
p652
I2
tp653
a(S'1 2 2 1 1 2 2 1 3 4 3 4 5 5'
p654
I28
tp655
a(S'1 2 1 2 3 4 3 5 6 7 6 7 8 8'
p656
I1
tp657
a(S'1 2 1 2 3 2 4 4 5 6 5 6 6 5'
p658
I1
tp659
a(S'1 2 2 1 1 3 3 1 4 4 1 5 5 1'
p660
I1
tp661
a(S'1 2 2 1 1 3 3 1 3 3 4 4 1 4'
p662
I1
tp663
a(S'1 1 2 2 3 3 4 4 5 5 6 6 7 7'
p664
I205
tp665
a(S'1 2 2 1 3 4 3 4 5 6 5 6 7 7'
p666
I3
tp667
a(S'1 2 2 1 3 4 3 4 5 5 6 5 6 6'
p668
I1
tp669
a(S'1 1 1 1 1 1 1 1 1 1 1 1 1 1'
p670
I1
tp671
a(S'1 2 2 1 1 3 3 1 4 5 5 6 4 6'
p672
I1
tp673
a(S'1 1 2 1 2 3 2 4 4 3 5 6 6 5'
p674
I1
tp675
a(S'1 2 1 2 3 4 3 4 5 6 7 5 6 7'
p676
I3
tp677
a(S'1 2 1 2 3 4 4 3 5 6 6 5 7 7'
p678
I1
tp679
a(S'1 2 2 1 1 2 2 1 3 4 3 5 4 5'
p680
I15
tp681
a(S'1 2 2 1 3 4 3 4 5 6 7 5 6 7'
p682
I1
tp683
a(S'1 2 1 2 3 4 4 3 5 6 5 6 7 7'
p684
I5
tp685
a(S'1 2 2 1 1 3 3 1 4 5 5 4 5 4'
p686
I2
tp687
a(S'1 2 2 1 1 2 2 1 3 4 5 3 5 4'
p688
I3
tp689
a(S'1 2 2 1 1 2 2 1 3 3 4 5 5 4'
p690
I228
tp691
a(S'1 2 1 2 3 4 3 4 5 6 5 6 7 7'
p692
I541
tp693
a(S'1 2 2 1 1 3 3 1 4 5 4 5 5 4'
p694
I1
tp695
a(S'1 2 1 2 2 1 2 1 3 3 4 5 5 4'
p696
I1
tp697
a(S'1 2 2 1 1 2 2 1 3 4 3 4 4 3'
p698
I2
tp699
a(S'1 2 1 2 2 1 2 1 3 4 3 4 5 5'
p700
I1
tp701
a(S'1 2 1 3 2 4 3 4 4 5 4 5 6 6'
p702
I1
tp703
a(S'1 2 1 2 2 3 3 4 5 4 5 5 6 6'
p704
I1
tp705
a(S'1 2 1 2 3 4 2 5 5 6 7 7 7 6'
p706
I1
tp707
a(S'1 2 1 2 2 3 3 4 3 4 5 6 5 6'
p708
I1
tp709
a(S'1 2 2 1 3 4 3 4 5 6 7 8 8 7'
p710
I1
tp711
a(S'1 2 1 2 3 3 4 4 5 5 6 6 7 7'
p712
I1
tp713
a(S'1 2 3 2 4 5 6 5 7 8 9 8 10 8'
p714
I3
tp715
a(S'1 2 2 1 1 2 2 1 3 4 5 4 3 4'
p716
I1
tp717
a(S'1 2 2 1 1 2 2 1 3 4 5 4 3 5'
p718
I5
tp719
a(S'1 2 2 3 3 1 4 4 5 6 7 7 6 6'
p720
I1
tp721
a(S'1 2 2 1 1 3 4 1 5 6 5 6 6 5'
p722
I1
tp723
asI15
(lp724
(S'1 1 2 3 3 2 4 5 5 4 4 5 6 5 6'
p725
I1
tp726
a(S'1 2 1 2 3 4 3 4 5 6 5 6 6 7 7'
p727
I2
tp728
a(S'1 2 1 2 1 3 4 3 4 5 6 5 6 7 7'
p729
I1
tp730
a(S'1 1 2 2 3 3 4 4 4 5 5 6 6 7 7'
p731
I2
tp732
a(S'1 1 2 2 3 3 4 4 5 5 6 6 7 7 7'
p733
I1
tp734
a(S'1 2 2 1 3 4 4 3 5 5 6 6 6 7 7'
p735
I1
tp736
a(S'1 2 1 3 2 2 4 4 2 5 3 6 5 6 3'
p737
I1
tp738
a(S'1 1 2 2 2 3 4 4 5 3 5 6 6 7 7'
p739
I1
tp740
a(S'1 2 1 2 1 2 2 1 3 4 3 4 3 4 3'
p741
I1
tp742
a(S'1 1 1 1 1 1 1 1 1 1 1 1 1 1 1'
p743
I2
tp744
a(S'1 1 1 2 2 3 2 4 5 4 5 6 6 7 7'
p745
I1
tp746
a(S'1 1 2 3 3 2 3 4 5 4 5 6 6 7 7'
p747
I2
tp748
a(S'1 1 2 2 3 3 4 4 5 5 5 6 6 7 7'
p749
I1
tp750
a(S'1 2 2 1 1 2 2 1 3 4 3 4 3 4 3'
p751
I1
tp752
a(S'1 1 1 2 2 3 3 4 4 5 5 6 6 7 7'
p753
I1
tp754
asI16
(lp755
(S'1 1 2 3 2 3 4 5 4 5 6 7 6 7 8 8'
p756
I1
tp757
a(S'1 2 1 2 3 4 5 4 5 3 5 5 6 6 7 7'
p758
I1
tp759
a(S'1 1 2 2 3 3 4 4 5 5 6 6 7 7 8 8'
p760
I136
tp761
a(S'1 2 2 1 3 4 4 3 5 6 6 5 7 8 8 7'
p762
I2
tp763
a(S'1 2 1 2 3 4 3 4 5 6 5 6 7 8 7 8'
p764
I16
tp765
a(S'1 2 3 3 2 1 4 5 5 4 6 6 7 7 8 8'
p766
I1
tp767
a(S'1 2 2 1 3 4 3 4 5 5 6 7 7 6 8 8'
p768
I1
tp769
a(S'1 1 2 2 2 3 3 4 4 5 5 5 6 6 7 7'
p770
I1
tp771
a(S'1 1 2 3 3 2 4 4 5 5 6 7 7 6 6 6'
p772
I1
tp773
a(S'1 2 3 2 1 2 3 2 4 5 6 5 4 5 6 5'
p774
I1
tp775
asI17
(lp776
(S'1 2 1 1 2 2 2 1 1 2 2 2 1 2 2 2 1'
p777
I1
tp778
a(S'1 1 2 2 3 3 4 4 5 5 5 6 6 7 7 8 8'
p779
I1
tp780
a(S'1 1 2 2 3 3 4 5 5 6 6 7 7 8 8 9 9'
p781
I1
tp782
a(S'1 1 1 2 3 2 3 3 2 4 4 5 5 6 6 7 7'
p783
I1
tp784
a(S'1 1 2 2 2 3 3 4 4 5 5 6 6 7 8 8 7'
p785
I1
tp786
a(S'1 1 2 2 3 3 4 4 5 5 6 6 7 7 8 8 8'
p787
I1
tp788
a(S'1 1 2 3 3 2 4 4 5 5 5 6 6 7 7 8 8'
p789
I1
tp790
asI18
(lp791
(S'1 1 2 3 3 2 4 4 5 6 6 5 7 7 8 9 9 8'
p792
I1
tp793
a(S'1 2 1 2 3 4 3 4 5 6 5 6 7 8 7 8 9 9'
p794
I3
tp795
a(S'1 1 2 2 2 3 3 3 4 4 5 5 6 6 7 7 8 8'
p796
I1
tp797
a(S'1 1 1 2 2 3 3 4 4 4 5 5 5 6 6 7 7 7'
p798
I1
tp799
a(S'1 2 3 2 4 5 6 5 7 8 9 8 10 11 12 11 13 11'
p800
I1
tp801
a(S'1 2 1 2 2 3 3 4 3 4 4 5 5 6 6 7 6 7'
p802
I1
tp803
a(S'1 1 2 2 3 3 4 4 5 5 6 6 7 7 8 8 9 9'
p804
I116
tp805
asI19
(lp806
(S'1 1 2 2 3 3 4 4 5 5 6 6 7 7 8 8 9 9 9'
p807
I1
tp808
a(S'1 1 2 2 3 4 4 3 5 5 5 5 6 6 7 7 8 8 8'
p809
I1
tp810
a(S'1 1 2 3 3 2 4 4 4 5 5 6 6 7 8 8 7 9 9'
p811
I1
tp812
a(S'1 1 2 2 3 3 4 5 5 4 6 6 6 7 7 8 8 9 9'
p813
I1
tp814
a(S'1 1 2 2 3 3 4 4 4 5 5 6 6 7 7 8 8 9 9'
p815
I1
tp816
a(S'1 2 1 2 1 2 1 2 1 2 1 2 1 2 1 2 1 2 1'
p817
I1
tp818
asI20
(lp819
(S'1 2 1 2 3 4 3 4 5 6 5 6 7 8 7 8 9 10 9 10'
p820
I8
tp821
a(S'1 2 2 1 3 4 4 3 5 6 6 5 7 8 8 7 9 10 10 9'
p822
I1
tp823
a(S'1 1 1 2 2 2 3 3 4 4 5 5 6 6 7 7 8 8 9 9'
p824
I1
tp825
a(S'1 1 2 2 3 3 4 4 5 5 6 6 7 7 8 8 9 9 10 10'
p826
I62
tp827
asI21
(lp828
(S'1 2 1 3 4 4 3 2 5 5 5 6 6 7 8 8 7 9 9 10 10'
p829
I1
tp830
asI22
(lp831
(S'1 1 2 2 3 3 4 4 5 5 6 6 7 7 8 8 9 9 10 10 11 11'
p832
I51
tp833
asI24
(lp834
(S'1 2 1 2 3 4 3 4 5 6 5 6 7 8 7 8 9 10 9 10 11 12 11 12'
p835
I6
tp836
a(S'1 1 2 2 3 3 4 4 5 5 6 6 7 7 8 8 9 9 10 10 11 11 12 12'
p837
I49
tp838
asI25
(lp839
(S'1 1 2 2 3 3 4 4 4 5 5 6 6 7 7 8 8 9 9 10 10 11 11 12 12'
p840
I1
tp841
a(S'1 1 2 2 2 3 3 4 5 5 4 6 6 7 7 8 8 9 9 10 10 11 11 12 12'
p842
I1
tp843
asI26
(lp844
(S'1 1 2 2 3 3 4 4 5 5 6 6 7 7 8 8 9 9 10 10 11 11 12 12 13 13'
p845
I34
tp846
asI28
(lp847
(S'1 2 1 2 3 4 3 4 5 6 5 6 7 8 7 8 9 10 9 10 11 12 11 12 13 14 13 14'
p848
I1
tp849
a(S'1 1 2 2 3 3 4 4 5 5 6 6 7 7 8 8 9 9 10 10 11 11 12 12 13 13 14 14'
p850
I24
tp851
asI29
(lp852
(S'1 1 2 2 3 3 4 4 5 5 6 6 7 7 8 8 9 9 9 10 11 11 11 12 12 13 13 14 14'
p853
I1
tp854
asI30
(lp855
(S'1 1 2 2 3 3 4 4 5 5 6 6 7 7 8 8 9 9 10 10 11 11 12 12 13 13 14 14 15 15'
p856
I23
tp857
a(S'1 1 2 3 3 2 4 4 5 6 6 5 7 7 8 9 9 8 10 10 11 12 12 11 13 13 14 15 15 14'
p858
I1
tp859
asI32
(lp860
(S'1 2 1 2 3 4 3 4 5 6 5 6 7 8 7 8 9 10 9 10 11 12 11 12 13 14 13 14 15 16 15 16'
p861
I1
tp862
a(S'1 1 2 2 3 3 4 4 5 5 6 6 7 7 8 8 9 9 10 10 11 11 12 12 13 13 14 14 15 15 16 16'
p863
I18
tp864
asI34
(lp865
(S'1 1 2 2 3 3 4 4 5 5 6 6 7 7 8 8 9 9 10 10 11 11 12 12 13 13 14 14 15 15 16 16 17 17'
p866
I17
tp867
asI35
(lp868
(S'1 1 2 2 3 3 4 4 5 5 6 6 7 7 8 8 9 9 10 10 11 11 12 12 13 13 14 14 15 15 15 16 16 17 17'
p869
I1
tp870
asI36
(lp871
(S'1 1 2 2 3 3 4 4 5 5 6 6 7 7 8 8 9 9 10 10 11 11 12 12 13 13 14 14 15 15 16 16 17 17 18 18'
p872
I13
tp873
asI38
(lp874
(S'1 1 2 2 3 3 4 4 5 5 6 6 7 7 8 8 9 9 10 10 11 11 12 12 13 13 14 14 15 15 16 16 17 17 18 18 19 19'
p875
I7
tp876
a(S'1 2 1 1 2 3 3 2 4 3 4 1 2 1 1 2 3 3 2 4 3 4 1 2 1 1 2 3 3 2 4 3 4 5 5 3 5 3'
p877
I1
tp878
asI40
(lp879
(S'1 1 2 2 3 3 4 4 5 5 6 6 7 7 8 8 9 9 10 10 11 11 12 12 13 13 14 14 15 15 16 16 17 17 18 18 19 19 20 20'
p880
I12
tp881
asI156
(lp882
(S'1 1 2 2 3 3 4 4 5 5 6 6 7 7 8 8 9 9 10 10 11 11 12 12 13 13 14 14 15 15 16 16 17 17 18 18 19 19 20 20 21 21 22 22 23 23 24 24 25 25 26 26 27 27 28 28 29 29 30 30 31 31 32 32 33 33 34 34 35 35 36 36 37 37 38 38 39 39 40 40 41 41 42 42 43 43 44 44 45 45 46 46 47 47 48 48 49 49 50 50 51 51 52 52 53 53 54 54 55 55 56 56 57 57 58 58 59 59 60 60 61 61 62 62 63 63 64 64 65 65 66 66 67 67 68 68 69 69 70 70 71 71 72 72 73 73 74 74 75 75 76 76 77 77 78 78'
p883
I1
tp884
asI42
(lp885
(S'1 1 2 2 3 3 4 4 5 5 6 6 7 7 8 8 9 9 10 10 11 11 12 12 13 13 14 14 15 15 16 16 17 17 18 18 19 19 20 20 21 21'
p886
I4
tp887
a(S'1 1 2 3 3 2 4 4 5 6 6 5 7 7 8 9 9 8 10 10 11 12 12 11 13 13 14 15 15 14 16 16 17 18 18 17 19 19 20 21 21 20'
p888
I1
tp889
asI44
(lp890
(S'1 2 1 2 3 4 3 4 5 6 5 6 7 8 7 8 9 10 9 10 11 12 11 12 13 14 13 14 15 16 15 16 17 18 17 18 19 20 19 20 21 22 21 22'
p891
I1
tp892
a(S'1 1 2 2 3 3 4 4 5 5 6 6 7 7 8 8 9 9 10 10 11 11 12 12 13 13 14 14 15 15 16 16 17 17 18 18 19 19 20 20 21 21 22 22'
p893
I6
tp894
asI46
(lp895
(S'1 1 2 2 3 3 4 4 5 5 6 6 7 7 8 8 9 9 10 10 11 11 12 12 13 13 14 14 15 15 16 16 17 17 18 18 19 19 20 20 21 21 22 22 23 23'
p896
I12
tp897
asI92
(lp898
(S'1 1 2 2 3 3 4 4 5 5 6 6 7 7 8 8 9 9 10 10 11 11 12 12 13 13 14 14 15 15 16 16 17 17 18 18 19 19 20 20 21 21 22 22 23 23 24 24 25 25 26 26 27 27 28 28 29 29 30 30 31 31 32 32 33 33 34 34 35 35 36 36 37 37 38 38 39 39 40 40 41 41 42 42 43 43 44 44 45 45 46 46'
p899
I1
tp900
asI48
(lp901
(S'1 2 1 2 3 4 3 4 5 6 5 6 7 8 7 8 9 10 9 10 11 12 11 12 13 14 13 14 15 16 15 16 17 18 17 18 19 20 19 20 21 22 21 22 23 24 23 24'
p902
I1
tp903
a(S'1 1 2 2 3 3 4 4 5 5 6 6 7 7 8 8 9 9 10 10 11 11 12 12 13 13 14 14 15 15 16 16 17 17 18 18 19 19 20 20 21 21 22 22 23 23 24 24'
p904
I3
tp905
asI49
(lp906
(S'1 1 1 2 2 3 3 4 4 5 5 6 6 7 7 8 8 9 9 9 10 10 11 11 12 12 13 13 14 14 15 15 16 16 17 17 18 18 19 19 20 20 21 21 22 22 23 23 23'
p907
I1
tp908
asI50
(lp909
(S'1 1 2 2 3 3 4 4 5 5 6 6 7 7 8 8 9 9 10 10 11 11 12 12 13 13 14 14 15 15 16 16 17 17 18 18 19 19 20 20 21 21 22 22 23 23 24 24 25 25'
p910
I8
tp911
asI172
(lp912
(S'1 1 2 2 3 3 4 4 5 5 6 6 7 7 8 8 9 9 10 10 11 11 12 12 13 13 14 14 15 15 16 16 17 17 18 18 19 19 20 20 21 21 22 22 23 23 24 24 25 25 26 26 27 27 28 28 29 29 30 30 31 31 32 32 33 33 34 34 35 35 36 36 37 37 38 38 39 39 40 40 41 41 42 42 43 43 44 44 45 45 46 46 47 47 48 48 49 49 50 50 51 51 52 52 53 53 54 54 55 55 56 56 57 57 58 58 59 59 60 60 61 61 62 62 63 63 64 64 65 65 66 66 67 67 68 68 69 69 70 70 71 71 72 72 73 73 74 74 75 75 76 76 77 77 78 78 79 79 80 80 81 81 82 82 83 83 84 84 85 85 86 86'
p913
I1
tp914
asI52
(lp915
(S'1 1 2 2 3 3 4 4 5 5 6 6 7 7 8 8 9 9 10 10 11 11 12 12 13 13 14 14 15 15 16 16 17 17 18 18 19 19 20 20 21 21 22 22 23 23 24 24 25 25 26 26'
p916
I1
tp917
asI54
(lp918
(S'1 1 2 2 3 3 4 4 5 5 6 6 7 7 8 8 9 9 10 10 11 11 12 12 13 13 14 14 15 15 16 16 17 17 18 18 19 19 20 20 21 21 22 22 23 23 24 24 25 25 26 26 27 27'
p919
I7
tp920
asI56
(lp921
(S'1 1 2 2 3 3 4 4 5 5 6 6 7 7 8 8 9 9 10 10 11 11 12 12 13 13 14 14 15 15 16 16 17 17 18 18 19 19 20 20 21 21 22 22 23 23 24 24 25 25 26 26 27 27 28 28'
p922
I5
tp923
asI58
(lp924
(S'1 1 2 2 3 3 4 4 5 5 6 6 7 7 8 8 9 9 10 10 11 11 12 12 13 13 14 14 15 15 16 16 17 17 18 18 19 19 20 20 21 21 22 22 23 23 24 24 25 25 26 26 27 27 28 28 29 29'
p925
I5
tp926
asI60
(lp927
(S'1 1 2 2 3 3 4 4 5 5 6 6 7 7 8 8 9 9 10 10 11 11 12 12 13 13 14 14 15 15 16 16 17 17 18 18 19 19 20 20 21 21 22 22 23 23 24 24 25 25 26 26 27 27 28 28 29 29 30 30'
p928
I5
tp929
asI74
(lp930
(S'1 1 2 2 3 3 4 4 5 5 6 6 7 7 8 8 9 9 10 10 11 11 12 12 13 13 14 14 15 15 16 16 17 17 18 18 19 19 20 20 21 21 22 22 23 23 24 24 25 25 26 26 27 27 28 28 29 29 30 30 31 31 32 32 33 33 34 34 35 35 36 36 37 37'
p931
I10
tp932
asI62
(lp933
(S'1 1 2 2 3 3 4 4 5 5 6 6 7 7 8 8 9 9 10 10 11 11 12 12 13 13 14 14 15 15 16 16 17 17 18 18 19 19 20 20 21 21 22 22 23 23 24 24 25 25 26 26 27 27 28 28 29 29 30 30 31 31'
p934
I5
tp935
asI192
(lp936
(S'1 1 2 2 3 3 4 4 5 5 6 6 7 7 8 8 9 9 10 10 11 11 12 12 13 13 14 14 15 15 16 16 17 17 18 18 19 19 20 20 21 21 22 22 23 23 24 24 25 25 26 26 27 27 28 28 29 29 30 30 31 31 32 32 33 33 34 34 35 35 36 36 37 37 38 38 39 39 40 40 41 41 42 42 43 43 44 44 45 45 46 46 47 47 48 48 49 49 50 50 51 51 52 52 53 53 54 54 55 55 56 56 57 57 58 58 59 59 60 60 61 61 62 62 63 63 64 64 65 65 66 66 67 67 68 68 69 69 70 70 71 71 72 72 73 73 74 74 75 75 76 76 77 77 78 78 79 79 80 80 81 81 82 82 83 83 84 84 85 85 86 86 87 87 88 88 89 89 90 90 91 91 92 92 93 93 94 94 95 95 96 96'
p937
I1
tp938
asI66
(lp939
(S'1 1 2 2 3 3 4 4 5 5 6 6 7 7 8 8 9 9 10 10 11 11 12 12 13 13 14 14 15 15 16 16 17 17 18 18 19 19 20 20 21 21 22 22 23 23 24 24 25 25 26 26 27 27 28 28 29 29 30 30 31 31 32 32 33 33'
p940
I4
tp941
asI68
(lp942
(S'1 1 2 2 3 3 4 4 5 5 6 6 7 7 8 8 9 9 10 10 11 11 12 12 13 13 14 14 15 15 16 16 17 17 18 18 19 19 20 20 21 21 22 22 23 23 24 24 25 25 26 26 27 27 28 28 29 29 30 30 31 31 32 32 33 33 34 34'
p943
I3
tp944
asI70
(lp945
(S'1 1 2 2 3 3 4 4 5 5 6 6 7 7 8 8 9 9 10 10 11 11 12 12 13 13 14 14 15 15 16 16 17 17 18 18 19 19 20 20 21 21 22 22 23 23 24 24 25 25 26 26 27 27 28 28 29 29 30 30 31 31 32 32 33 33 34 34 35 35'
p946
I2
tp947
asI72
(lp948
(S'1 1 2 2 3 3 4 4 5 5 6 6 7 7 8 8 9 9 10 10 11 11 12 12 13 13 14 14 15 15 16 16 17 17 18 18 19 19 20 20 21 21 22 22 23 23 24 24 25 25 26 26 27 27 28 28 29 29 30 30 31 31 32 32 33 33 34 34 35 35 36 36'
p949
I3
tp950
asI202
(lp951
(S'1 1 2 2 3 3 4 4 5 5 6 6 7 7 8 8 9 9 10 10 11 11 12 12 13 13 14 14 15 15 16 16 17 17 18 18 19 19 20 20 21 21 22 22 23 23 24 24 25 25 26 26 27 27 28 28 29 29 30 30 31 31 32 32 33 33 34 34 35 35 36 36 37 37 38 38 39 39 40 40 41 41 42 42 43 43 44 44 45 45 46 46 47 47 48 48 49 49 50 50 51 51 52 52 53 53 54 54 55 55 56 56 57 57 58 58 59 59 60 60 61 61 62 62 63 63 64 64 65 65 66 66 67 67 68 68 69 69 70 70 71 71 72 72 73 73 74 74 75 75 76 76 77 77 78 78 79 79 80 80 81 81 82 82 83 83 84 84 85 85 86 86 87 87 88 88 89 89 90 90 91 91 92 92 93 93 94 94 95 95 96 96 97 97 98 98 99 99 100 100 101 101'
p952
I1
tp953
asI76
(lp954
(S'1 1 2 2 3 3 4 4 5 5 6 6 7 7 8 8 9 9 10 10 11 11 12 12 13 13 14 14 15 15 16 16 17 17 18 18 19 19 20 20 21 21 22 22 23 23 24 24 25 25 26 26 27 27 28 28 29 29 30 30 31 31 32 32 33 33 34 34 35 35 36 36 37 37 38 38'
p955
I1
tp956
asI78
(lp957
(S'1 1 2 2 3 3 4 4 5 5 6 6 7 7 8 8 9 9 10 10 11 11 12 12 13 13 14 14 15 15 16 16 17 17 18 18 19 19 20 20 21 21 22 22 23 23 24 24 25 25 26 26 27 27 28 28 29 29 30 30 31 31 32 32 33 33 34 34 35 35 36 36 37 37 38 38 39 39'
p958
I3
tp959
asI80
(lp960
(S'1 1 2 2 3 3 4 4 5 5 6 6 7 7 8 8 9 9 10 10 11 11 12 12 13 13 14 14 15 15 16 16 17 17 18 18 19 19 20 20 21 21 22 22 23 23 24 24 25 25 26 26 27 27 28 28 29 29 30 30 31 31 32 32 33 33 34 34 35 35 36 36 37 37 38 38 39 39 40 40'
p961
I2
tp962
asI214
(lp963
(S'1 1 2 2 3 3 4 4 5 5 6 6 7 7 8 8 9 9 10 10 11 11 12 12 13 13 14 14 15 15 16 16 17 17 18 18 19 19 20 20 21 21 22 22 23 23 24 24 25 25 26 26 27 27 28 28 29 29 30 30 31 31 32 32 33 33 34 34 35 35 36 36 37 37 38 38 39 39 40 40 41 41 42 42 43 43 44 44 45 45 46 46 47 47 48 48 49 49 50 50 51 51 52 52 53 53 54 54 55 55 56 56 57 57 58 58 59 59 60 60 61 61 62 62 63 63 64 64 65 65 66 66 67 67 68 68 69 69 70 70 71 71 72 72 73 73 74 74 75 75 76 76 77 77 78 78 79 79 80 80 81 81 82 82 83 83 84 84 85 85 86 86 87 87 88 88 89 89 90 90 91 91 92 92 93 93 94 94 95 95 96 96 97 97 98 98 99 99 100 100 101 101 102 102 103 103 104 104 105 105 106 106 107 107'
p964
I1
tp965
asI220
(lp966
(S'1 1 2 2 3 3 4 4 5 5 6 6 7 7 8 8 9 9 10 10 11 11 12 12 13 13 14 14 15 15 16 16 17 17 18 18 19 19 20 20 21 21 22 22 23 23 24 24 25 25 26 26 27 27 28 28 29 29 30 30 31 31 32 32 33 33 34 34 35 35 36 36 37 37 38 38 39 39 40 40 41 41 42 42 43 43 44 44 45 45 46 46 47 47 48 48 49 49 50 50 51 51 52 52 53 53 54 54 55 55 56 56 57 57 58 58 59 59 60 60 61 61 62 62 63 63 64 64 65 65 66 66 67 67 68 68 69 69 70 70 71 71 72 72 73 73 74 74 75 75 76 76 77 77 78 78 79 79 80 80 81 81 82 82 83 83 84 84 85 85 86 86 87 87 88 88 89 89 90 90 91 91 92 92 93 93 94 94 95 95 96 96 97 97 98 98 99 99 100 100 101 101 102 102 103 103 104 104 105 105 106 106 107 107 108 108 109 109 110 110'
p967
I1
tp968
asI144
(lp969
(S'1 1 2 2 3 3 4 4 5 5 6 6 7 7 8 8 9 9 10 10 11 11 12 12 13 13 14 14 15 15 16 16 17 17 18 18 19 19 20 20 21 21 22 22 23 23 24 24 25 25 26 26 27 27 28 28 29 29 30 30 31 31 32 32 33 33 34 34 35 35 36 36 37 37 38 38 39 39 40 40 41 41 42 42 43 43 44 44 45 45 46 46 47 47 48 48 49 49 50 50 51 51 52 52 53 53 54 54 55 55 56 56 57 57 58 58 59 59 60 60 61 61 62 62 63 63 64 64 65 65 66 66 67 67 68 68 69 69 70 70 71 71 72 72'
p970
I1
tp971
asI100
(lp972
(S'1 1 2 2 3 3 4 4 5 5 6 6 7 7 8 8 9 9 10 10 11 11 12 12 13 13 14 14 15 15 16 16 17 17 18 18 19 19 20 20 21 21 22 22 23 23 24 24 25 25 26 26 27 27 28 28 29 29 30 30 31 31 32 32 33 33 34 34 35 35 36 36 37 37 38 38 39 39 40 40 41 41 42 42 43 43 44 44 45 45 46 46 47 47 48 48 49 49 50 50'
p973
I2
tp974
asI102
(lp975
(S'1 1 2 2 3 3 4 4 5 5 6 6 7 7 8 8 9 9 10 10 11 11 12 12 13 13 14 14 15 15 16 16 17 17 18 18 19 19 20 20 21 21 22 22 23 23 24 24 25 25 26 26 27 27 28 28 29 29 30 30 31 31 32 32 33 33 34 34 35 35 36 36 37 37 38 38 39 39 40 40 41 41 42 42 43 43 44 44 45 45 46 46 47 47 48 48 49 49 50 50 51 51'
p976
I1
tp977
asI104
(lp978
(S'1 1 2 2 3 3 4 4 5 5 6 6 7 7 8 8 9 9 10 10 11 11 12 12 13 13 14 14 15 15 16 16 17 17 18 18 19 19 20 20 21 21 22 22 23 23 24 24 25 25 26 26 27 27 28 28 29 29 30 30 31 31 32 32 33 33 34 34 35 35 36 36 37 37 38 38 39 39 40 40 41 41 42 42 43 43 44 44 45 45 46 46 47 47 48 48 49 49 50 50 51 51 52 52'
p979
I1
tp980
asI196
(lp981
(S'1 1 2 2 3 3 4 4 5 5 6 6 7 7 8 8 9 9 10 10 11 11 12 12 13 13 14 14 15 15 16 16 17 17 18 18 19 19 20 20 21 21 22 22 23 23 24 24 25 25 26 26 27 27 28 28 29 29 30 30 31 31 32 32 33 33 34 34 35 35 36 36 37 37 38 38 39 39 40 40 41 41 42 42 43 43 44 44 45 45 46 46 47 47 48 48 49 49 50 50 51 51 52 52 53 53 54 54 55 55 56 56 57 57 58 58 59 59 60 60 61 61 62 62 63 63 64 64 65 65 66 66 67 67 68 68 69 69 70 70 71 71 72 72 73 73 74 74 75 75 76 76 77 77 78 78 79 79 80 80 81 81 82 82 83 83 84 84 85 85 86 86 87 87 88 88 89 89 90 90 91 91 92 92 93 93 94 94 95 95 96 96 97 97 98 98'
p982
I2
tp983
asI190
(lp984
(S'1 1 2 2 3 3 4 4 5 5 6 6 7 7 8 8 9 9 10 10 11 11 12 12 13 13 14 14 15 15 16 16 17 17 18 18 19 19 20 20 21 21 22 22 23 23 24 24 25 25 26 26 27 27 28 28 29 29 30 30 31 31 32 32 33 33 34 34 35 35 36 36 37 37 38 38 39 39 40 40 41 41 42 42 43 43 44 44 45 45 46 46 47 47 48 48 49 49 50 50 51 51 52 52 53 53 54 54 55 55 56 56 57 57 58 58 59 59 60 60 61 61 62 62 63 63 64 64 65 65 66 66 67 67 68 68 69 69 70 70 71 71 72 72 73 73 74 74 75 75 76 76 77 77 78 78 79 79 80 80 81 81 82 82 83 83 84 84 85 85 86 86 87 87 88 88 89 89 90 90 91 91 92 92 93 93 94 94 95 95'
p985
I1
tp986
asI118
(lp987
(S'1 1 2 2 3 3 4 4 5 5 6 6 7 7 8 8 9 9 10 10 11 11 12 12 13 13 14 14 15 15 16 16 17 17 18 18 19 19 20 20 21 21 22 22 23 23 24 24 25 25 26 26 27 27 28 28 29 29 30 30 31 31 32 32 33 33 34 34 35 35 36 36 37 37 38 38 39 39 40 40 41 41 42 42 43 43 44 44 45 45 46 46 47 47 48 48 49 49 50 50 51 51 52 52 53 53 54 54 55 55 56 56 57 57 58 58 59 59'
p988
I1
tp989
asI124
(lp990
(S'1 1 2 2 3 3 4 4 5 5 6 6 7 7 8 8 9 9 10 10 11 11 12 12 13 13 14 14 15 15 16 16 17 17 18 18 19 19 20 20 21 21 22 22 23 23 24 24 25 25 26 26 27 27 28 28 29 29 30 30 31 31 32 32 33 33 34 34 35 35 36 36 37 37 38 38 39 39 40 40 41 41 42 42 43 43 44 44 45 45 46 46 47 47 48 48 49 49 50 50 51 51 52 52 53 53 54 54 55 55 56 56 57 57 58 58 59 59 60 60 61 61 62 62'
p991
I1
tp992
asI126
(lp993
(S'1 1 2 2 3 3 4 4 5 5 6 6 7 7 8 8 9 9 10 10 11 11 12 12 13 13 14 14 15 15 16 16 17 17 18 18 19 19 20 20 21 21 22 22 23 23 24 24 25 25 26 26 27 27 28 28 29 29 30 30 31 31 32 32 33 33 34 34 35 35 36 36 37 37 38 38 39 39 40 40 41 41 42 42 43 43 44 44 45 45 46 46 47 47 48 48 49 49 50 50 51 51 52 52 53 53 54 54 55 55 56 56 57 57 58 58 59 59 60 60 61 61 62 62 63 63'
p994
I1
tp995
as.